target datalayout = "e-m:e-p270:32:32-p271:32:32-p272:64:64-i64:64-i128:128-f80:128-n8:16:32:64-S128"
target triple = "x86_64-unknown-linux-gnu"

@.str.20 = private unnamed_addr constant [5 x i8] c"DATA\00", align 1
@.str.21 = private unnamed_addr constant [8 x i8] c"HEADERS\00", align 1
@.str.22 = private unnamed_addr constant [9 x i8] c"PRIORITY\00", align 1
@.str.23 = private unnamed_addr constant [11 x i8] c"RST_STREAM\00", align 1
@.str.24 = private unnamed_addr constant [9 x i8] c"SETTINGS\00", align 1
@.str.25 = private unnamed_addr constant [13 x i8] c"PUSH_PROMISE\00", align 1
@.str.26 = private unnamed_addr constant [5 x i8] c"PING\00", align 1
@.str.27 = private unnamed_addr constant [7 x i8] c"GOAWAY\00", align 1
@.str.28 = private unnamed_addr constant [14 x i8] c"WINDOW_UPDATE\00", align 1
@.str.29 = private unnamed_addr constant [13 x i8] c"CONTINUATION\00", align 1
@.str.30 = private unnamed_addr constant [7 x i8] c"ALTSVC\00", align 1
@.str.31 = private unnamed_addr constant [20 x i8] c"CERTIFICATE_REQUEST\00", align 1
@.str.32 = private unnamed_addr constant [12 x i8] c"CERTIFICATE\00", align 1
@.str.33 = private unnamed_addr constant [8 x i8] c"Unknown\00", align 1

; Function Attrs: mustprogress nounwind uwtable
define noundef ptr @_ZN8proxygen5http218getFrameTypeStringENS0_9FrameTypeE(i8 noundef zeroext %type) #4 {
entry:
  %retval = alloca ptr, align 8
  %type.addr = alloca i8, align 1
  store i8 %type, ptr %type.addr, align 1
  %0 = load i8, ptr %type.addr, align 1
  switch i8 %0, label %sw.default [
    i8 0, label %sw.bb
    i8 1, label %sw.bb1
    i8 2, label %sw.bb2
    i8 3, label %sw.bb3
    i8 4, label %sw.bb4
    i8 5, label %sw.bb5
    i8 6, label %sw.bb6
    i8 7, label %sw.bb7
    i8 8, label %sw.bb8
    i8 9, label %sw.bb9
    i8 10, label %sw.bb10
    i8 -16, label %sw.bb11
    i8 -15, label %sw.bb12
  ]

sw.bb:                                            ; preds = %entry
  store ptr @.str.20, ptr %retval, align 8
  br label %return

sw.bb1:                                           ; preds = %entry
  store ptr @.str.21, ptr %retval, align 8
  br label %return

sw.bb2:                                           ; preds = %entry
  store ptr @.str.22, ptr %retval, align 8
  br label %return

sw.bb3:                                           ; preds = %entry
  store ptr @.str.23, ptr %retval, align 8
  br label %return

sw.bb4:                                           ; preds = %entry
  store ptr @.str.24, ptr %retval, align 8
  br label %return

sw.bb5:                                           ; preds = %entry
  store ptr @.str.25, ptr %retval, align 8
  br label %return

sw.bb6:                                           ; preds = %entry
  store ptr @.str.26, ptr %retval, align 8
  br label %return

sw.bb7:                                           ; preds = %entry
  store ptr @.str.27, ptr %retval, align 8
  br label %return

sw.bb8:                                           ; preds = %entry
  store ptr @.str.28, ptr %retval, align 8
  br label %return

sw.bb9:                                           ; preds = %entry
  store ptr @.str.29, ptr %retval, align 8
  br label %return

sw.bb10:                                          ; preds = %entry
  store ptr @.str.30, ptr %retval, align 8
  br label %return

sw.bb11:                                          ; preds = %entry
  store ptr @.str.31, ptr %retval, align 8
  br label %return

sw.bb12:                                          ; preds = %entry
  store ptr @.str.32, ptr %retval, align 8
  br label %return

sw.default:                                       ; preds = %entry
  store ptr @.str.33, ptr %retval, align 8
  br label %return

return:                                           ; preds = %sw.default, %sw.bb12, %sw.bb11, %sw.bb10, %sw.bb9, %sw.bb8, %sw.bb7, %sw.bb6, %sw.bb5, %sw.bb4, %sw.bb3, %sw.bb2, %sw.bb1, %sw.bb
  %1 = load ptr, ptr %retval, align 8
  ret ptr %1
}