; Function Attrs: mustprogress nofree norecurse nosync nounwind willreturn memory(none) uwtable
define noundef nonnull ptr @_ZN8proxygen5http218getFrameTypeStringENS0_9FrameTypeE(i8 noundef zeroext %type) local_unnamed_addr #3 {
entry:
  %switch.tableidx = add i8 %type, 16
  %0 = icmp ult i8 %switch.tableidx, 27
  br i1 %0, label %switch.lookup, label %return

switch.lookup:                                    ; preds = %entry
  %1 = zext nneg i8 %switch.tableidx to i64
  %switch.gep = getelementptr inbounds [27 x ptr], ptr @switch.table._ZN8proxygen5http218getFrameTypeStringENS0_9FrameTypeE, i64 0, i64 %1
  %switch.load = load ptr, ptr %switch.gep, align 8
  br label %return

return:                                           ; preds = %entry, %switch.lookup
  %retval.0 = phi ptr [ %switch.load, %switch.lookup ], [ @.str.33, %entry ]
  ret ptr %retval.0
}